Certificate:
    Data:
        Version: 3 (0x2)
        Serial Number: 2 (0x2)
    Signature Algorithm: md5WithRSAEncryption
        Issuer: C=CN, ST=GD, L=GuangZhou, O=hanxu, OU=changeme, CN=OpenVPN_CA/name=Coder/emailAddress=807174205@qq.com
        Validity
            Not Before: Nov 25 02:14:44 2017 GMT
            Not After : Nov 23 02:14:44 2027 GMT
        Subject: C=CN, ST=GD, L=GuangZhou, O=hanxu, OU=changeme, CN=client/name=Coder Reader/emailAddress=807174205@qq.com
        Subject Public Key Info:
            Public Key Algorithm: rsaEncryption
                Public-Key: (1024 bit)
                Modulus:
                    00:9d:5a:fc:ef:42:ff:12:6f:38:0f:2c:12:12:fd:
                    3b:6a:7e:ea:5f:38:2c:ba:d9:cb:71:0d:26:f1:1f:
                    f3:6d:0a:af:a0:a5:bf:da:0c:90:33:51:c8:98:da:
                    74:07:cc:c2:a8:a4:77:61:0c:34:c3:7b:ed:07:cf:
                    8c:b0:1c:8a:c7:1e:58:76:9d:50:59:5a:49:63:4d:
                    19:99:4f:f3:aa:9f:74:ac:f9:dd:1a:8c:bb:9c:ae:
                    20:3d:39:52:a0:34:1d:ef:da:84:c1:d7:85:ba:d2:
                    bf:12:85:5e:74:86:05:6c:c4:23:5a:82:fb:98:98:
                    cc:bd:d7:7a:7a:5f:90:e1:0f
                Exponent: 65537 (0x10001)
        X509v3 extensions:
            X509v3 Basic Constraints: 
                CA:FALSE
            Netscape Comment: 
                Easy-RSA Generated Certificate
            X509v3 Subject Key Identifier: 
                3B:E2:85:48:CB:A9:4E:BD:5E:BB:D3:9E:2F:6F:1A:EA:74:12:87:96
            X509v3 Authority Key Identifier: 
                keyid:49:12:4E:26:50:10:B2:98:B7:2D:5A:66:E0:03:C8:FC:2D:CD:C8:8A
                DirName:/C=CN/ST=GD/L=GuangZhou/O=hanxu/OU=changeme/CN=OpenVPN_CA/name=Coder/emailAddress=807174205@qq.com
                serial:F0:23:D8:8E:50:C4:B4:A2

            X509v3 Extended Key Usage: 
                TLS Web Client Authentication
            X509v3 Key Usage: 
                Digital Signature
    Signature Algorithm: md5WithRSAEncryption
         2e:c8:1a:2f:cd:49:7e:31:0d:d4:b5:81:d6:e9:64:92:c0:dc:
         26:70:8e:c1:39:f5:f2:44:ce:e9:a4:69:4a:69:74:b3:7f:72:
         82:8c:d4:cc:1b:6d:18:92:bd:df:8f:2e:0e:72:3f:9b:5e:a6:
         69:f1:1e:d3:6e:1b:18:da:f8:64:f9:f8:2e:ec:5c:bf:61:c3:
         29:ae:6f:a8:72:a8:b6:3b:38:8c:3f:7d:f6:ed:42:31:31:73:
         62:a4:a0:40:be:6f:38:fc:5b:bd:01:60:25:25:3c:80:19:40:
         86:9c:6f:aa:d9:68:9e:bd:c2:7f:db:c8:62:c1:b6:c2:e0:6f:
         f1:d1
-----BEGIN CERTIFICATE-----
MIID+TCCA2KgAwIBAgIBAjANBgkqhkiG9w0BAQQFADCBlzELMAkGA1UEBhMCQ04x
CzAJBgNVBAgTAkdEMRIwEAYDVQQHEwlHdWFuZ1pob3UxDjAMBgNVBAoTBWhhbnh1
MREwDwYDVQQLEwhjaGFuZ2VtZTETMBEGA1UEAxQKT3BlblZQTl9DQTEOMAwGA1UE
KRMFQ29kZXIxHzAdBgkqhkiG9w0BCQEWEDgwNzE3NDIwNUBxcS5jb20wHhcNMTcx
MTI1MDIxNDQ0WhcNMjcxMTIzMDIxNDQ0WjCBmjELMAkGA1UEBhMCQ04xCzAJBgNV
BAgTAkdEMRIwEAYDVQQHEwlHdWFuZ1pob3UxDjAMBgNVBAoTBWhhbnh1MREwDwYD
VQQLEwhjaGFuZ2VtZTEPMA0GA1UEAxMGY2xpZW50MRUwEwYDVQQpEwxDb2RlciBS
ZWFkZXIxHzAdBgkqhkiG9w0BCQEWEDgwNzE3NDIwNUBxcS5jb20wgZ8wDQYJKoZI
hvcNAQEBBQADgY0AMIGJAoGBAJ1a/O9C/xJvOA8sEhL9O2p+6l84LLrZy3ENJvEf
820Kr6Clv9oMkDNRyJjadAfMwqikd2EMNMN77QfPjLAcisceWHadUFlaSWNNGZlP
86qfdKz53RqMu5yuID05UqA0He/ahMHXhbrSvxKFXnSGBWzEI1qC+5iYzL3Xenpf
kOEPAgMBAAGjggFOMIIBSjAJBgNVHRMEAjAAMC0GCWCGSAGG+EIBDQQgFh5FYXN5
LVJTQSBHZW5lcmF0ZWQgQ2VydGlmaWNhdGUwHQYDVR0OBBYEFDvihUjLqU69XrvT
ni9vGup0EoeWMIHMBgNVHSMEgcQwgcGAFEkSTiZQELKYty1aZuADyPwtzciKoYGd
pIGaMIGXMQswCQYDVQQGEwJDTjELMAkGA1UECBMCR0QxEjAQBgNVBAcTCUd1YW5n
WmhvdTEOMAwGA1UEChMFaGFueHUxETAPBgNVBAsTCGNoYW5nZW1lMRMwEQYDVQQD
FApPcGVuVlBOX0NBMQ4wDAYDVQQpEwVDb2RlcjEfMB0GCSqGSIb3DQEJARYQODA3
MTc0MjA1QHFxLmNvbYIJAPAj2I5QxLSiMBMGA1UdJQQMMAoGCCsGAQUFBwMCMAsG
A1UdDwQEAwIHgDANBgkqhkiG9w0BAQQFAAOBgQAuyBovzUl+MQ3UtYHW6WSSwNwm
cI7BOfXyRM7ppGlKaXSzf3KCjNTMG20Ykr3fjy4Ocj+bXqZp8R7TbhsY2vhk+fgu
7Fy/YcMprm+ocqi2OziMP3327UIxMXNipKBAvm84/Fu9AWAlJTyAGUCGnG+q2Wie
vcJ/28hiwbbC4G/x0Q==
-----END CERTIFICATE-----
