Certificate:
    Data:
        Version: 3 (0x2)
        Serial Number: 2 (0x2)
    Signature Algorithm: md5WithRSAEncryption
        Issuer: C=CN, ST=GuangDong, L=GuangZhou, O=sysu, OU=admin, CN=OpenVPN_CA/name=sysu/emailAddress=807174205@qq.com
        Validity
            Not Before: Nov 25 04:11:58 2017 GMT
            Not After : Nov 23 04:11:58 2027 GMT
        Subject: C=CN, ST=GuangDong, L=GuangZhou, O=sysu, OU=guest, CN=client/name=sysu reader/emailAddress=807174205@qq.com
        Subject Public Key Info:
            Public Key Algorithm: rsaEncryption
                Public-Key: (1024 bit)
                Modulus:
                    00:da:03:4a:ed:0b:5c:9b:7a:a9:fe:2a:e6:d8:ad:
                    72:43:b9:ae:08:35:d7:3c:9d:bd:bd:0e:9e:e8:98:
                    3c:19:ab:60:35:d5:49:46:99:87:3c:6c:ff:d8:dd:
                    68:a7:ed:54:91:32:8e:20:93:ee:a8:dc:0e:b4:90:
                    67:6f:06:6c:4d:05:52:27:55:6d:f4:4b:17:73:88:
                    33:c6:98:f5:4c:48:8c:6f:16:fe:99:f4:af:fd:73:
                    c4:b7:df:83:4a:28:92:c8:7f:aa:61:aa:96:d1:cd:
                    89:36:79:57:6c:8c:ab:f8:d5:6f:20:b4:48:5f:be:
                    75:4a:ea:75:49:d9:42:3d:51
                Exponent: 65537 (0x10001)
        X509v3 extensions:
            X509v3 Basic Constraints: 
                CA:FALSE
            Netscape Comment: 
                Easy-RSA Generated Certificate
            X509v3 Subject Key Identifier: 
                27:5C:CD:72:6C:6B:5E:90:AC:FF:FC:E5:76:6B:01:28:93:A9:80:43
            X509v3 Authority Key Identifier: 
                keyid:10:3E:B8:6D:FA:03:77:C7:27:4C:7C:44:13:11:A3:F3:46:0E:66:EE
                DirName:/C=CN/ST=GuangDong/L=GuangZhou/O=sysu/OU=admin/CN=OpenVPN_CA/name=sysu/emailAddress=807174205@qq.com
                serial:D6:28:C1:1A:75:12:FF:4F

            X509v3 Extended Key Usage: 
                TLS Web Client Authentication
            X509v3 Key Usage: 
                Digital Signature
    Signature Algorithm: md5WithRSAEncryption
         75:4d:62:87:12:fd:c5:a6:99:8a:00:55:18:a9:65:d5:e4:4b:
         1d:df:55:8b:c7:ea:c2:79:41:9c:33:1a:6d:f2:46:3e:a4:cc:
         2f:7f:4a:ba:c2:8d:9e:a6:85:3d:dc:5e:f0:1c:cd:df:3b:a4:
         5b:a9:6d:c6:a5:d3:f6:56:b5:a2:e8:98:ac:3d:6a:41:b3:cc:
         e7:fb:d0:43:7f:d3:77:08:78:07:28:fa:be:a2:78:17:e2:df:
         36:00:55:42:a7:1e:d0:60:2a:72:f0:76:a8:59:d6:00:36:fa:
         4d:82:35:21:c8:1d:9d:b5:3b:6b:7a:ca:b1:c1:8e:bb:c1:a5:
         85:6c
-----BEGIN CERTIFICATE-----
MIID/zCCA2igAwIBAgIBAjANBgkqhkiG9w0BAQQFADCBmTELMAkGA1UEBhMCQ04x
EjAQBgNVBAgTCUd1YW5nRG9uZzESMBAGA1UEBxMJR3VhbmdaaG91MQ0wCwYDVQQK
EwRzeXN1MQ4wDAYDVQQLEwVhZG1pbjETMBEGA1UEAxQKT3BlblZQTl9DQTENMAsG
A1UEKRMEc3lzdTEfMB0GCSqGSIb3DQEJARYQODA3MTc0MjA1QHFxLmNvbTAeFw0x
NzExMjUwNDExNThaFw0yNzExMjMwNDExNThaMIGcMQswCQYDVQQGEwJDTjESMBAG
A1UECBMJR3VhbmdEb25nMRIwEAYDVQQHEwlHdWFuZ1pob3UxDTALBgNVBAoTBHN5
c3UxDjAMBgNVBAsTBWd1ZXN0MQ8wDQYDVQQDEwZjbGllbnQxFDASBgNVBCkTC3N5
c3UgcmVhZGVyMR8wHQYJKoZIhvcNAQkBFhA4MDcxNzQyMDVAcXEuY29tMIGfMA0G
CSqGSIb3DQEBAQUAA4GNADCBiQKBgQDaA0rtC1ybeqn+KubYrXJDua4INdc8nb29
Dp7omDwZq2A11UlGmYc8bP/Y3Win7VSRMo4gk+6o3A60kGdvBmxNBVInVW30Sxdz
iDPGmPVMSIxvFv6Z9K/9c8S334NKKJLIf6phqpbRzYk2eVdsjKv41W8gtEhfvnVK
6nVJ2UI9UQIDAQABo4IBUDCCAUwwCQYDVR0TBAIwADAtBglghkgBhvhCAQ0EIBYe
RWFzeS1SU0EgR2VuZXJhdGVkIENlcnRpZmljYXRlMB0GA1UdDgQWBBQnXM1ybGte
kKz//OV2awEok6mAQzCBzgYDVR0jBIHGMIHDgBQQPrht+gN3xydMfEQTEaPzRg5m
7qGBn6SBnDCBmTELMAkGA1UEBhMCQ04xEjAQBgNVBAgTCUd1YW5nRG9uZzESMBAG
A1UEBxMJR3VhbmdaaG91MQ0wCwYDVQQKEwRzeXN1MQ4wDAYDVQQLEwVhZG1pbjET
MBEGA1UEAxQKT3BlblZQTl9DQTENMAsGA1UEKRMEc3lzdTEfMB0GCSqGSIb3DQEJ
ARYQODA3MTc0MjA1QHFxLmNvbYIJANYowRp1Ev9PMBMGA1UdJQQMMAoGCCsGAQUF
BwMCMAsGA1UdDwQEAwIHgDANBgkqhkiG9w0BAQQFAAOBgQB1TWKHEv3FppmKAFUY
qWXV5Esd31WLx+rCeUGcMxpt8kY+pMwvf0q6wo2epoU93F7wHM3fO6RbqW3GpdP2
VrWi6JisPWpBs8zn+9BDf9N3CHgHKPq+ongX4t82AFVCpx7QYCpy8HaoWdYANvpN
gjUhyB2dtTtresqxwY67waWFbA==
-----END CERTIFICATE-----
