Certificate:
    Data:
        Version: 3 (0x2)
        Serial Number: 2 (0x2)
    Signature Algorithm: md5WithRSAEncryption
        Issuer: C=CN, ST=GD, L=GuangZhou, O=sysu, OU=admin, CN=CA/name=hanxuVPN/emailAddress=807174205@qq.com
        Validity
            Not Before: Nov 25 13:45:06 2017 GMT
            Not After : Nov 23 13:45:06 2027 GMT
        Subject: C=CN, ST=GD, L=GuangZhou, O=sysu, OU=guest, CN=client/name=hanxuVPN/emailAddress=807174205@qq.com
        Subject Public Key Info:
            Public Key Algorithm: rsaEncryption
                Public-Key: (1024 bit)
                Modulus:
                    00:b6:42:4e:8a:0b:57:04:b6:3f:7a:6e:a8:3c:d6:
                    a4:44:b8:70:4c:7a:57:f5:96:b5:e9:e5:b2:14:ad:
                    2d:1f:08:e2:0b:dc:73:98:7c:b4:a4:cf:22:fa:25:
                    38:6d:fb:dc:04:27:49:a2:25:f3:d3:ca:c5:df:3f:
                    f3:06:b3:fb:f2:f5:88:f8:23:bf:87:43:a0:0a:b1:
                    38:da:40:69:07:75:13:f1:d7:42:e6:b7:4f:2e:5f:
                    f9:6a:28:c1:49:1a:11:9d:4f:39:19:db:6f:2d:86:
                    ff:d5:3f:4b:26:f3:03:4b:4d:10:af:e6:d5:6f:d3:
                    dc:a8:72:f5:ac:98:aa:16:39
                Exponent: 65537 (0x10001)
        X509v3 extensions:
            X509v3 Basic Constraints: 
                CA:FALSE
            Netscape Comment: 
                Easy-RSA Generated Certificate
            X509v3 Subject Key Identifier: 
                07:5A:D1:84:91:96:9E:0B:33:0D:1F:6B:22:74:52:A3:03:FB:18:B9
            X509v3 Authority Key Identifier: 
                keyid:8A:07:F4:5C:65:08:F0:08:83:6B:8A:4D:2F:63:47:52:B1:31:94:63
                DirName:/C=CN/ST=GD/L=GuangZhou/O=sysu/OU=admin/CN=CA/name=hanxuVPN/emailAddress=807174205@qq.com
                serial:C7:6C:71:60:06:1F:12:0C

            X509v3 Extended Key Usage: 
                TLS Web Client Authentication
            X509v3 Key Usage: 
                Digital Signature
    Signature Algorithm: md5WithRSAEncryption
         b4:ad:bf:db:13:e7:11:82:61:63:b3:b3:9b:b2:d9:85:3d:d7:
         1f:51:b7:99:87:78:45:18:34:cf:31:d9:0c:c8:22:a1:5d:ea:
         e1:5e:bb:76:b4:0d:fc:a4:6a:83:ec:d6:38:f0:1b:9e:d6:06:
         ef:36:a1:fb:f6:23:55:1b:3f:92:d6:d7:eb:8d:a1:4b:2d:2f:
         c2:43:59:7d:0e:be:e5:af:79:98:93:25:59:f8:bf:39:13:c0:
         bb:fd:6b:94:20:4e:90:92:0f:cd:aa:67:85:c2:d0:d3:b5:9d:
         bd:c6:91:ed:45:ae:df:da:39:c1:a8:4a:81:38:9a:46:6a:26:
         b4:fc
-----BEGIN CERTIFICATE-----
MIID3zCCA0igAwIBAgIBAjANBgkqhkiG9w0BAQQFADCBjjELMAkGA1UEBhMCQ04x
CzAJBgNVBAgTAkdEMRIwEAYDVQQHEwlHdWFuZ1pob3UxDTALBgNVBAoTBHN5c3Ux
DjAMBgNVBAsTBWFkbWluMQswCQYDVQQDEwJDQTERMA8GA1UEKRMIaGFueHVWUE4x
HzAdBgkqhkiG9w0BCQEWEDgwNzE3NDIwNUBxcS5jb20wHhcNMTcxMTI1MTM0NTA2
WhcNMjcxMTIzMTM0NTA2WjCBkjELMAkGA1UEBhMCQ04xCzAJBgNVBAgTAkdEMRIw
EAYDVQQHEwlHdWFuZ1pob3UxDTALBgNVBAoTBHN5c3UxDjAMBgNVBAsTBWd1ZXN0
MQ8wDQYDVQQDEwZjbGllbnQxETAPBgNVBCkTCGhhbnh1VlBOMR8wHQYJKoZIhvcN
AQkBFhA4MDcxNzQyMDVAcXEuY29tMIGfMA0GCSqGSIb3DQEBAQUAA4GNADCBiQKB
gQC2Qk6KC1cEtj96bqg81qREuHBMelf1lrXp5bIUrS0fCOIL3HOYfLSkzyL6JTht
+9wEJ0miJfPTysXfP/MGs/vy9Yj4I7+HQ6AKsTjaQGkHdRPx10Lmt08uX/lqKMFJ
GhGdTzkZ228thv/VP0sm8wNLTRCv5tVv09yocvWsmKoWOQIDAQABo4IBRTCCAUEw
CQYDVR0TBAIwADAtBglghkgBhvhCAQ0EIBYeRWFzeS1SU0EgR2VuZXJhdGVkIENl
cnRpZmljYXRlMB0GA1UdDgQWBBQHWtGEkZaeCzMNH2sidFKjA/sYuTCBwwYDVR0j
BIG7MIG4gBSKB/RcZQjwCINrik0vY0dSsTGUY6GBlKSBkTCBjjELMAkGA1UEBhMC
Q04xCzAJBgNVBAgTAkdEMRIwEAYDVQQHEwlHdWFuZ1pob3UxDTALBgNVBAoTBHN5
c3UxDjAMBgNVBAsTBWFkbWluMQswCQYDVQQDEwJDQTERMA8GA1UEKRMIaGFueHVW
UE4xHzAdBgkqhkiG9w0BCQEWEDgwNzE3NDIwNUBxcS5jb22CCQDHbHFgBh8SDDAT
BgNVHSUEDDAKBggrBgEFBQcDAjALBgNVHQ8EBAMCB4AwDQYJKoZIhvcNAQEEBQAD
gYEAtK2/2xPnEYJhY7Ozm7LZhT3XH1G3mYd4RRg0zzHZDMgioV3q4V67drQN/KRq
g+zWOPAbntYG7zah+/YjVRs/ktbX642hSy0vwkNZfQ6+5a95mJMlWfi/ORPAu/1r
lCBOkJIPzapnhcLQ07WdvcaR7UWu39o5wahKgTiaRmomtPw=
-----END CERTIFICATE-----
