Certificate:
    Data:
        Version: 3 (0x2)
        Serial Number: 2 (0x2)
    Signature Algorithm: md5WithRSAEncryption
        Issuer: C=CN, ST=GD, L=GuangZhou, O=hanxu, OU=hanxu, CN=OpenVPN_CA/name=CodePlayer/emailAddress=807174205@qq.com
        Validity
            Not Before: Nov 25 09:14:24 2017 GMT
            Not After : Nov 23 09:14:24 2027 GMT
        Subject: C=CN, ST=GD, L=GuangZhou, O=hanxu, OU=hanxu, CN=client/name=CodePlayer Reader/emailAddress=807174205@qq.com
        Subject Public Key Info:
            Public Key Algorithm: rsaEncryption
                Public-Key: (1024 bit)
                Modulus:
                    00:f7:ee:cd:05:95:8a:59:8e:b8:b6:54:f7:97:7e:
                    0e:5f:c9:49:c4:98:02:04:c4:b2:7d:87:5f:55:87:
                    ba:bd:65:78:dc:95:8f:b0:b6:bb:42:4d:28:89:dd:
                    dd:80:6b:37:ee:55:19:ba:68:50:15:ee:02:7c:7a:
                    f9:b0:9d:85:c9:7a:63:08:7e:58:c8:71:81:4e:5b:
                    ff:f2:e3:76:4a:e0:de:f2:40:2f:7f:dc:10:75:bf:
                    97:60:f2:81:f1:60:07:d2:f4:1e:32:1d:bd:1e:e2:
                    2d:e8:c3:a6:f8:83:b2:c0:bc:24:cd:c6:e4:96:b4:
                    84:84:48:62:f1:8f:e7:02:69
                Exponent: 65537 (0x10001)
        X509v3 extensions:
            X509v3 Basic Constraints: 
                CA:FALSE
            Netscape Comment: 
                Easy-RSA Generated Certificate
            X509v3 Subject Key Identifier: 
                8D:FC:74:EE:78:88:4C:03:90:98:49:6A:DC:34:2A:9E:B3:0B:BF:8F
            X509v3 Authority Key Identifier: 
                keyid:AC:C4:2C:C5:2D:63:AA:EF:6A:BA:C3:3D:29:2C:C9:59:7C:C6:52:3F
                DirName:/C=CN/ST=GD/L=GuangZhou/O=hanxu/OU=hanxu/CN=OpenVPN_CA/name=CodePlayer/emailAddress=807174205@qq.com
                serial:84:A5:88:92:6A:FB:FE:CD

            X509v3 Extended Key Usage: 
                TLS Web Client Authentication
            X509v3 Key Usage: 
                Digital Signature
    Signature Algorithm: md5WithRSAEncryption
         ac:9b:02:0e:97:bb:99:9f:cf:8a:81:3d:80:fd:41:81:0f:20:
         33:66:bf:70:ce:d0:b3:18:13:f1:27:6f:a0:8f:77:bf:0a:12:
         47:7f:b2:79:2c:3b:eb:b5:0e:4b:33:30:b2:06:e6:96:aa:94:
         f8:2a:45:1d:75:7b:a4:f7:eb:0b:3e:38:7a:28:83:cc:1d:ea:
         14:05:87:f4:c3:b3:02:02:2e:9b:e7:b4:d0:20:4d:26:3e:dd:
         c0:bf:4a:e6:ff:27:36:9c:ac:25:33:86:fd:7e:a8:11:52:7c:
         6b:e7:7d:74:b6:3d:31:d1:df:21:c4:5d:71:a5:c5:4a:85:d6:
         b0:86
-----BEGIN CERTIFICATE-----
MIID/zCCA2igAwIBAgIBAjANBgkqhkiG9w0BAQQFADCBmTELMAkGA1UEBhMCQ04x
CzAJBgNVBAgTAkdEMRIwEAYDVQQHEwlHdWFuZ1pob3UxDjAMBgNVBAoTBWhhbnh1
MQ4wDAYDVQQLEwVoYW54dTETMBEGA1UEAxQKT3BlblZQTl9DQTETMBEGA1UEKRMK
Q29kZVBsYXllcjEfMB0GCSqGSIb3DQEJARYQODA3MTc0MjA1QHFxLmNvbTAeFw0x
NzExMjUwOTE0MjRaFw0yNzExMjMwOTE0MjRaMIGcMQswCQYDVQQGEwJDTjELMAkG
A1UECBMCR0QxEjAQBgNVBAcTCUd1YW5nWmhvdTEOMAwGA1UEChMFaGFueHUxDjAM
BgNVBAsTBWhhbnh1MQ8wDQYDVQQDEwZjbGllbnQxGjAYBgNVBCkTEUNvZGVQbGF5
ZXIgUmVhZGVyMR8wHQYJKoZIhvcNAQkBFhA4MDcxNzQyMDVAcXEuY29tMIGfMA0G
CSqGSIb3DQEBAQUAA4GNADCBiQKBgQD37s0FlYpZjri2VPeXfg5fyUnEmAIExLJ9
h19Vh7q9ZXjclY+wtrtCTSiJ3d2AazfuVRm6aFAV7gJ8evmwnYXJemMIfljIcYFO
W//y43ZK4N7yQC9/3BB1v5dg8oHxYAfS9B4yHb0e4i3ow6b4g7LAvCTNxuSWtISE
SGLxj+cCaQIDAQABo4IBUDCCAUwwCQYDVR0TBAIwADAtBglghkgBhvhCAQ0EIBYe
RWFzeS1SU0EgR2VuZXJhdGVkIENlcnRpZmljYXRlMB0GA1UdDgQWBBSN/HTueIhM
A5CYSWrcNCqeswu/jzCBzgYDVR0jBIHGMIHDgBSsxCzFLWOq72q6wz0pLMlZfMZS
P6GBn6SBnDCBmTELMAkGA1UEBhMCQ04xCzAJBgNVBAgTAkdEMRIwEAYDVQQHEwlH
dWFuZ1pob3UxDjAMBgNVBAoTBWhhbnh1MQ4wDAYDVQQLEwVoYW54dTETMBEGA1UE
AxQKT3BlblZQTl9DQTETMBEGA1UEKRMKQ29kZVBsYXllcjEfMB0GCSqGSIb3DQEJ
ARYQODA3MTc0MjA1QHFxLmNvbYIJAISliJJq+/7NMBMGA1UdJQQMMAoGCCsGAQUF
BwMCMAsGA1UdDwQEAwIHgDANBgkqhkiG9w0BAQQFAAOBgQCsmwIOl7uZn8+KgT2A
/UGBDyAzZr9wztCzGBPxJ2+gj3e/ChJHf7J5LDvrtQ5LMzCyBuaWqpT4KkUddXuk
9+sLPjh6KIPMHeoUBYf0w7MCAi6b57TQIE0mPt3Av0rm/yc2nKwlM4b9fqgRUnxr
5310tj0x0d8hxF1xpcVKhdawhg==
-----END CERTIFICATE-----
